target datalayout = "e-m:e-p270:32:32-p271:32:32-p272:64:64-i64:64-i128:128-f80:128-n8:16:32:64-S128"
target triple = "x86_64-pc-linux-gnu"

%"class.duckdb_re2::Prog" = type { i8, i8, i8, i8, i8, i32, i32, i32, i32, i8, i64, %union.anon.1, i32, [8 x i32], %"class.duckdb_re2::PODArray", i64, %"class.duckdb_re2::PODArray.5", %"class.duckdb_re2::PODArray.14", i64, ptr, ptr, [256 x i8], %"struct.std::once_flag", %"struct.std::once_flag" }
%union.anon.1 = type { ptr }
%"class.duckdb_re2::PODArray" = type { %"class.std::unique_ptr" }
%"class.std::unique_ptr" = type { %"struct.std::__uniq_ptr_data" }
%"struct.std::__uniq_ptr_data" = type { %"class.std::__uniq_ptr_impl" }
%"class.std::__uniq_ptr_impl" = type { %"class.std::tuple" }
%"class.std::tuple" = type { %"struct.std::_Tuple_impl" }
%"struct.std::_Tuple_impl" = type { %"struct.std::_Tuple_impl.3", %"struct.std::_Head_base.4" }
%"struct.std::_Tuple_impl.3" = type { %"struct.std::_Head_base" }
%"struct.std::_Head_base" = type { %"struct.duckdb_re2::PODArray<unsigned short>::Deleter" }
%"struct.duckdb_re2::PODArray<unsigned short>::Deleter" = type { i32 }
%"struct.std::_Head_base.4" = type { ptr }
%"class.duckdb_re2::PODArray.5" = type { %"class.std::unique_ptr.6" }
%"class.std::unique_ptr.6" = type { %"struct.std::__uniq_ptr_data.7" }
%"struct.std::__uniq_ptr_data.7" = type { %"class.std::__uniq_ptr_impl.8" }
%"class.std::__uniq_ptr_impl.8" = type { %"class.std::tuple.9" }
%"class.std::tuple.9" = type { %"struct.std::_Tuple_impl.10" }
%"struct.std::_Tuple_impl.10" = type { %"struct.std::_Tuple_impl.11", %"struct.std::_Head_base.13" }
%"struct.std::_Tuple_impl.11" = type { %"struct.std::_Head_base.12" }
%"struct.std::_Head_base.12" = type { %"struct.duckdb_re2::PODArray<duckdb_re2::Prog::Inst>::Deleter" }
%"struct.duckdb_re2::PODArray<duckdb_re2::Prog::Inst>::Deleter" = type { i32 }
%"struct.std::_Head_base.13" = type { ptr }
%"class.duckdb_re2::PODArray.14" = type { %"class.std::unique_ptr.15" }
%"class.std::unique_ptr.15" = type { %"struct.std::__uniq_ptr_data.16" }
%"struct.std::__uniq_ptr_data.16" = type { %"class.std::__uniq_ptr_impl.17" }
%"class.std::__uniq_ptr_impl.17" = type { %"class.std::tuple.18" }
%"class.std::tuple.18" = type { %"struct.std::_Tuple_impl.19" }
%"struct.std::_Tuple_impl.19" = type { %"struct.std::_Tuple_impl.20", %"struct.std::_Head_base.22" }
%"struct.std::_Tuple_impl.20" = type { %"struct.std::_Head_base.21" }
%"struct.std::_Head_base.21" = type { %"struct.duckdb_re2::PODArray<unsigned char>::Deleter" }
%"struct.duckdb_re2::PODArray<unsigned char>::Deleter" = type { i32 }
%"struct.std::_Head_base.22" = type { ptr }
%"struct.std::once_flag" = type { i32 }
%struct.anon.2 = type { i32, i32 }

; Function Attrs: mustprogress nounwind uwtable
define hidden noundef ptr @_ZN10duckdb_re24Prog24PrefixAccel_FrontAndBackEPKvm(ptr noundef nonnull align 8 dereferenceable(432) %0, ptr noundef %1, i64 noundef %2) #1 align 2 {
  %4 = alloca ptr, align 8
  %5 = alloca ptr, align 8
  %6 = alloca ptr, align 8
  %7 = alloca i64, align 8
  %8 = alloca ptr, align 8
  %9 = alloca ptr, align 8
  store ptr %0, ptr %5, align 8, !tbaa !17
  store ptr %1, ptr %6, align 8, !tbaa !201
  store i64 %2, ptr %7, align 8, !tbaa !139
  %10 = load ptr, ptr %5, align 8
  %11 = load i64, ptr %7, align 8, !tbaa !139
  %12 = getelementptr inbounds nuw %"class.duckdb_re2::Prog", ptr %10, i32 0, i32 10
  %13 = load i64, ptr %12, align 8, !tbaa !66
  %14 = icmp ult i64 %11, %13
  br i1 %14, label %15, label %16

15:                                               ; preds = %3
  store ptr null, ptr %4, align 8
  br label %57

16:                                               ; preds = %3
  %17 = getelementptr inbounds nuw %"class.duckdb_re2::Prog", ptr %10, i32 0, i32 10
  %18 = load i64, ptr %17, align 8, !tbaa !66
  %19 = sub i64 %18, 1
  %20 = load i64, ptr %7, align 8, !tbaa !139
  %21 = sub i64 %20, %19
  store i64 %21, ptr %7, align 8, !tbaa !139
  call void @llvm.lifetime.start.p0(i64 8, ptr %8) #17
  %22 = load ptr, ptr %6, align 8, !tbaa !201
  store ptr %22, ptr %8, align 8, !tbaa !113
  call void @llvm.lifetime.start.p0(i64 8, ptr %9) #17
  %23 = load ptr, ptr %8, align 8, !tbaa !113
  store ptr %23, ptr %9, align 8, !tbaa !113
  br label %24

24:                                               ; preds = %54, %16
  %25 = load ptr, ptr %9, align 8, !tbaa !113
  %26 = getelementptr inbounds nuw %"class.duckdb_re2::Prog", ptr %10, i32 0, i32 11
  %27 = getelementptr inbounds nuw %struct.anon.2, ptr %26, i32 0, i32 0
  %28 = load i32, ptr %27, align 8, !tbaa !10
  %29 = load i64, ptr %7, align 8, !tbaa !139
  %30 = load ptr, ptr %9, align 8, !tbaa !113
  %31 = load ptr, ptr %8, align 8, !tbaa !113
  %32 = ptrtoint ptr %30 to i64
  %33 = ptrtoint ptr %31 to i64
  %34 = sub i64 %32, %33
  %35 = sub i64 %29, %34
  %36 = call noundef ptr @memchr(ptr noundef %25, i32 noundef %28, i64 noundef %35) #22
  store ptr %36, ptr %9, align 8, !tbaa !113
  %37 = load ptr, ptr %9, align 8, !tbaa !113
  %38 = icmp eq ptr %37, null
  br i1 %38, label %51, label %39

39:                                               ; preds = %24
  %40 = load ptr, ptr %9, align 8, !tbaa !113
  %41 = getelementptr inbounds nuw %"class.duckdb_re2::Prog", ptr %10, i32 0, i32 10
  %42 = load i64, ptr %41, align 8, !tbaa !66
  %43 = sub i64 %42, 1
  %44 = getelementptr inbounds nuw i8, ptr %40, i64 %43
  %45 = load i8, ptr %44, align 1, !tbaa !10
  %46 = sext i8 %45 to i32
  %47 = getelementptr inbounds nuw %"class.duckdb_re2::Prog", ptr %10, i32 0, i32 11
  %48 = getelementptr inbounds nuw %struct.anon.2, ptr %47, i32 0, i32 1
  %49 = load i32, ptr %48, align 4, !tbaa !10
  %50 = icmp eq i32 %46, %49
  br i1 %50, label %51, label %53

51:                                               ; preds = %39, %24
  %52 = load ptr, ptr %9, align 8, !tbaa !113
  store ptr %52, ptr %4, align 8
  call void @llvm.lifetime.end.p0(i64 8, ptr %9) #17
  call void @llvm.lifetime.end.p0(i64 8, ptr %8) #17
  br label %57

53:                                               ; preds = %39
  br label %54

54:                                               ; preds = %53
  %55 = load ptr, ptr %9, align 8, !tbaa !113
  %56 = getelementptr inbounds nuw i8, ptr %55, i32 1
  store ptr %56, ptr %9, align 8, !tbaa !113
  br label %24, !llvm.loop !258

57:                                               ; preds = %51, %15
  %58 = load ptr, ptr %4, align 8
  ret ptr %58
}