; Function Attrs: mustprogress nofree nounwind willreturn memory(read, inaccessiblemem: none) uwtable
define hidden noundef ptr @_ZN10duckdb_re24Prog24PrefixAccel_FrontAndBackEPKvm(ptr noundef nonnull readonly align 8 captures(none) dereferenceable(432) %0, ptr noundef %1, i64 noundef %2) local_unnamed_addr #14 align 2 {
  %4 = getelementptr inbounds nuw i8, ptr %0, i64 32
  %5 = load i64, ptr %4, align 8, !tbaa !9
  %6 = icmp ult i64 %2, %5
  br i1 %6, label %.loopexit, label %7

7:                                                ; preds = %3
  %8 = getelementptr inbounds nuw i8, ptr %0, i64 40
  %9 = load i32, ptr %8, align 8, !tbaa !8
  %10 = ptrtoint ptr %1 to i64
  %.neg = add i64 %2, 1
  %.neg18 = add i64 %.neg, %10
  %11 = sub i64 %.neg18, %5
  %12 = sub i64 %11, %10
  %13 = tail call noundef ptr @memchr(ptr noundef %1, i32 noundef %9, i64 noundef %12) #27
  %14 = icmp eq ptr %13, null
  br i1 %14, label %.loopexit, label %.lr.ph

.lr.ph:                                           ; preds = %7
  %15 = getelementptr inbounds nuw i8, ptr %0, i64 44
  %16 = load i32, ptr %15, align 4, !tbaa !8
  br label %17

17:                                               ; preds = %.lr.ph, %24
  %18 = phi ptr [ %13, %.lr.ph ], [ %28, %24 ]
  %19 = getelementptr i8, ptr %18, i64 %5
  %20 = getelementptr i8, ptr %19, i64 -1
  %21 = load i8, ptr %20, align 1, !tbaa !8
  %22 = sext i8 %21 to i32
  %23 = icmp eq i32 %16, %22
  br i1 %23, label %.loopexit, label %24

24:                                               ; preds = %17
  %25 = getelementptr inbounds nuw i8, ptr %18, i64 1
  %26 = ptrtoint ptr %25 to i64
  %27 = sub i64 %11, %26
  %28 = tail call noundef ptr @memchr(ptr noundef nonnull %25, i32 noundef %9, i64 noundef %27) #27
  %29 = icmp eq ptr %28, null
  br i1 %29, label %.loopexit, label %17, !llvm.loop !220

.loopexit:                                        ; preds = %17, %24, %7, %3
  %.013 = phi ptr [ null, %3 ], [ null, %7 ], [ %18, %17 ], [ null, %24 ]
  ret ptr %.013
}